target datalayout = "e-m:e-p270:32:32-p271:32:32-p272:64:64-i64:64-i128:128-f80:128-n8:16:32:64-S128"
target triple = "x86_64-pc-linux-gnu"

%struct.wl_list = type { ptr, ptr }
%struct.SDL_VideoData = type { i8, ptr, i32, ptr, ptr, ptr, ptr, i32, %struct.anon.9, ptr, ptr, ptr, ptr, ptr, ptr, ptr, ptr, ptr, ptr, ptr, ptr, ptr, ptr, ptr, ptr, ptr, ptr, ptr, ptr, ptr, ptr, %struct.wl_list, ptr, ptr, ptr, ptr, i32, i32, i8, i8 }
%struct.anon.9 = type { ptr }
%struct.SDL_WaylandCursorTheme = type { ptr, i32 }

@sys_cursors = internal global [10 x ptr] zeroinitializer, align 16
@dbus_cursor_theme = internal global ptr null, align 8
@WAYLAND_wl_cursor_theme_destroy = external global ptr, align 8

; Function Attrs: nounwind uwtable
define internal void @Wayland_DBusFinishCursorProperties() #0 {
  %1 = load ptr, ptr @dbus_cursor_theme, align 8
  call void @SDL_free_REAL(ptr noundef %1)
  store ptr null, ptr @dbus_cursor_theme, align 8
  ret void
}

; Function Attrs: nounwind uwtable
define internal void @Wayland_FreeCursorThemes(ptr noundef %0) #0 {
  %2 = alloca ptr, align 8
  %3 = alloca i32, align 4
  store ptr %0, ptr %2, align 8
  call void @llvm.lifetime.start.p0(i64 4, ptr %3) #7
  store i32 0, ptr %3, align 4
  br label %4

4:                                                ; preds = %21, %1
  %5 = load i32, ptr %3, align 4
  %6 = load ptr, ptr %2, align 8
  %7 = getelementptr inbounds nuw %struct.SDL_VideoData, ptr %6, i32 0, i32 7
  %8 = load i32, ptr %7, align 8
  %9 = icmp slt i32 %5, %8
  br i1 %9, label %11, label %10

10:                                               ; preds = %4
  call void @llvm.lifetime.end.p0(i64 4, ptr %3) #7
  br label %24

11:                                               ; preds = %4
  %12 = load ptr, ptr @WAYLAND_wl_cursor_theme_destroy, align 8
  %13 = load ptr, ptr %2, align 8
  %14 = getelementptr inbounds nuw %struct.SDL_VideoData, ptr %13, i32 0, i32 6
  %15 = load ptr, ptr %14, align 8
  %16 = load i32, ptr %3, align 4
  %17 = sext i32 %16 to i64
  %18 = getelementptr inbounds %struct.SDL_WaylandCursorTheme, ptr %15, i64 %17
  %19 = getelementptr inbounds nuw %struct.SDL_WaylandCursorTheme, ptr %18, i32 0, i32 0
  %20 = load ptr, ptr %19, align 8
  call void %12(ptr noundef %20)
  br label %21

21:                                               ; preds = %11
  %22 = load i32, ptr %3, align 4
  %23 = add nsw i32 %22, 1
  store i32 %23, ptr %3, align 4
  br label %4, !llvm.loop !13

24:                                               ; preds = %10
  %25 = load ptr, ptr %2, align 8
  %26 = getelementptr inbounds nuw %struct.SDL_VideoData, ptr %25, i32 0, i32 7
  store i32 0, ptr %26, align 8
  %27 = load ptr, ptr %2, align 8
  %28 = getelementptr inbounds nuw %struct.SDL_VideoData, ptr %27, i32 0, i32 6
  %29 = load ptr, ptr %28, align 8
  call void @SDL_free_REAL(ptr noundef %29)
  %30 = load ptr, ptr %2, align 8
  %31 = getelementptr inbounds nuw %struct.SDL_VideoData, ptr %30, i32 0, i32 6
  store ptr null, ptr %31, align 8
  ret void
}

; Function Attrs: nounwind uwtable
define hidden void @Wayland_FiniMouse(ptr noundef %0) #0 {
  %2 = alloca ptr, align 8
  %3 = alloca i32, align 4
  store ptr %0, ptr %2, align 8
  %4 = load ptr, ptr %2, align 8
  call void @Wayland_FreeCursorThemes(ptr noundef %4)
  call void @Wayland_DBusFinishCursorProperties()
  call void @llvm.lifetime.start.p0(i64 4, ptr %3) #7
  store i32 0, ptr %3, align 4
  br label %5

5:                                                ; preds = %18, %1
  %6 = load i32, ptr %3, align 4
  %7 = sext i32 %6 to i64
  %8 = icmp ult i64 %7, 10
  br i1 %8, label %10, label %9

9:                                                ; preds = %5
  call void @llvm.lifetime.end.p0(i64 4, ptr %3) #7
  br label %21

10:                                               ; preds = %5
  %11 = load i32, ptr %3, align 4
  %12 = sext i32 %11 to i64
  %13 = getelementptr inbounds [10 x ptr], ptr @sys_cursors, i64 0, i64 %12
  %14 = load ptr, ptr %13, align 8
  call void @Wayland_FreeCursor(ptr noundef %14)
  %15 = load i32, ptr %3, align 4
  %16 = sext i32 %15 to i64
  %17 = getelementptr inbounds [10 x ptr], ptr @sys_cursors, i64 0, i64 %16
  store ptr null, ptr %17, align 8
  br label %18

18:                                               ; preds = %10
  %19 = load i32, ptr %3, align 4
  %20 = add nsw i32 %19, 1
  store i32 %20, ptr %3, align 4
  br label %5, !llvm.loop !12

21:                                               ; preds = %9
  ret void
}