; Function Attrs: nounwind uwtable
define hidden void @Wayland_FiniMouse(ptr noundef captures(none) %0) local_unnamed_addr #0 {
  %2 = getelementptr inbounds nuw i8, ptr %0, i64 56
  %3 = load i32, ptr %2, align 8
  %4 = icmp sgt i32 %3, 0
  br i1 %4, label %.lr.ph.i, label %Wayland_FreeCursorThemes.exit

.lr.ph.i:                                         ; preds = %1
  %5 = getelementptr inbounds nuw i8, ptr %0, i64 48
  br label %6

6:                                                ; preds = %6, %.lr.ph.i
  %indvars.iv.i = phi i64 [ 0, %.lr.ph.i ], [ %indvars.iv.next.i, %6 ]
  %7 = load ptr, ptr @WAYLAND_wl_cursor_theme_destroy, align 8
  %8 = load ptr, ptr %5, align 8
  %9 = getelementptr inbounds nuw %struct.SDL_WaylandCursorTheme, ptr %8, i64 %indvars.iv.i
  %10 = load ptr, ptr %9, align 8
  tail call void %7(ptr noundef %10) #6
  %indvars.iv.next.i = add nuw nsw i64 %indvars.iv.i, 1
  %11 = load i32, ptr %2, align 8
  %12 = sext i32 %11 to i64
  %13 = icmp slt i64 %indvars.iv.next.i, %12
  br i1 %13, label %6, label %Wayland_FreeCursorThemes.exit, !llvm.loop !14

Wayland_FreeCursorThemes.exit:                    ; preds = %6, %1
  store i32 0, ptr %2, align 8
  %14 = getelementptr inbounds nuw i8, ptr %0, i64 48
  %15 = load ptr, ptr %14, align 8
  tail call void @SDL_free_REAL(ptr noundef %15) #6
  store ptr null, ptr %14, align 8
  %16 = load ptr, ptr @dbus_cursor_theme, align 8
  tail call void @SDL_free_REAL(ptr noundef %16) #6
  store ptr null, ptr @dbus_cursor_theme, align 8
  br label %18

17:                                               ; preds = %18
  ret void

18:                                               ; preds = %Wayland_FreeCursorThemes.exit, %18
  %indvars.iv = phi i64 [ 0, %Wayland_FreeCursorThemes.exit ], [ %indvars.iv.next, %18 ]
  %19 = getelementptr inbounds nuw [10 x ptr], ptr @sys_cursors, i64 0, i64 %indvars.iv
  %20 = load ptr, ptr %19, align 8
  tail call void @Wayland_FreeCursor(ptr noundef %20)
  store ptr null, ptr %19, align 8
  %indvars.iv.next = add nuw nsw i64 %indvars.iv, 1
  %exitcond.not = icmp eq i64 %indvars.iv.next, 10
  br i1 %exitcond.not, label %17, label %18, !llvm.loop !15
}